; Function Attrs: mustprogress nofree norecurse nosync nounwind memory(readwrite, inaccessiblemem: none) uwtable
define hidden void @_ZN3ue211upperStringERNSt7__cxx1112basic_stringIcSt11char_traitsIcESaIcEEE(ptr noundef nonnull readonly align 8 captures(none) dereferenceable(32) %0) local_unnamed_addr #0 {
  %2 = load ptr, ptr %0, align 8
  %3 = getelementptr inbounds nuw i8, ptr %0, i64 8
  %4 = load i64, ptr %3, align 8
  %5 = getelementptr inbounds nuw i8, ptr %2, i64 %4
  %.not8 = icmp samesign eq i64 %4, 0
  br i1 %.not8, label %._crit_edge, label %.lr.ph

._crit_edge:                                      ; preds = %.lr.ph, %1
  ret void

.lr.ph:                                           ; preds = %1, %.lr.ph
  %.sroa.05.09 = phi ptr [ %10, %.lr.ph ], [ %2, %1 ]
  %6 = load i8, ptr %.sroa.05.09, align 1
  %7 = add i8 %6, -123
  %8 = icmp ult i8 %7, -26
  %9 = add i8 %6, -32
  %.0.i = select i1 %8, i8 %6, i8 %9
  store i8 %.0.i, ptr %.sroa.05.09, align 1
  %10 = getelementptr inbounds nuw i8, ptr %.sroa.05.09, i64 1
  %.not = icmp eq ptr %10, %5
  br i1 %.not, label %._crit_edge, label %.lr.ph
}